target datalayout = "e-m:e-p270:32:32-p271:32:32-p272:64:64-i64:64-i128:128-f80:128-n8:16:32:64-S128"
target triple = "x86_64-pc-linux-gnu"

%struct._zval_struct = type { %union._zend_value, %union.anon, %union.anon.2 }
%union._zend_value = type { i64 }
%union.anon = type { i32 }
%union.anon.2 = type { i32 }
%struct._zend_array = type { %struct._zend_refcounted_h, %union.anon.5, i32, %union.anon.7, i32, i32, i32, i32, i64, ptr }
%struct._zend_refcounted_h = type { i32, %union.anon.3 }
%union.anon.3 = type { i32 }
%union.anon.5 = type { i32 }
%union.anon.7 = type { ptr }

; Function Attrs: alwaysinline nounwind uwtable
define internal void @zend_gc_try_delref(ptr noundef %0) #1 {
  %2 = alloca ptr, align 8
  store ptr %0, ptr %2, align 8, !tbaa !96
  %3 = load ptr, ptr %2, align 8, !tbaa !96
  %4 = getelementptr inbounds nuw %struct._zend_refcounted_h, ptr %3, i32 0, i32 1
  %5 = load i32, ptr %4, align 4, !tbaa !11
  %6 = and i32 %5, 64
  %7 = icmp ne i32 %6, 0
  br i1 %7, label %15, label %8

8:                                                ; preds = %1
  br label %9

9:                                                ; preds = %8
  br label %10

10:                                               ; preds = %9
  %11 = load ptr, ptr %2, align 8, !tbaa !96
  %12 = getelementptr inbounds nuw %struct._zend_refcounted_h, ptr %11, i32 0, i32 0
  %13 = load i32, ptr %12, align 4, !tbaa !98
  %14 = add i32 %13, -1
  store i32 %14, ptr %12, align 4, !tbaa !98
  br label %15

15:                                               ; preds = %10, %1
  ret void
}

; Function Attrs: alwaysinline nounwind uwtable
define internal i32 @zend_gc_refcount(ptr noundef %0) #1 {
  %2 = alloca ptr, align 8
  store ptr %0, ptr %2, align 8, !tbaa !96
  %3 = load ptr, ptr %2, align 8, !tbaa !96
  %4 = getelementptr inbounds nuw %struct._zend_refcounted_h, ptr %3, i32 0, i32 0
  %5 = load i32, ptr %4, align 4, !tbaa !98
  ret i32 %5
}

; Function Attrs: noinline nounwind uwtable
define internal void @add_function_array(ptr noundef %0, ptr noundef %1, ptr noundef %2) #5 {
  %4 = alloca ptr, align 8
  %5 = alloca ptr, align 8
  %6 = alloca ptr, align 8
  %7 = alloca ptr, align 8
  %8 = alloca ptr, align 8
  %9 = alloca ptr, align 8
  %10 = alloca ptr, align 8
  %11 = alloca ptr, align 8
  %12 = alloca ptr, align 8
  store ptr %0, ptr %4, align 8, !tbaa !12
  store ptr %1, ptr %5, align 8, !tbaa !12
  store ptr %2, ptr %6, align 8, !tbaa !12
  %13 = load ptr, ptr %4, align 8, !tbaa !12
  %14 = load ptr, ptr %5, align 8, !tbaa !12
  %15 = icmp eq ptr %13, %14
  br i1 %15, label %16, label %25

16:                                               ; preds = %3
  %17 = load ptr, ptr %5, align 8, !tbaa !12
  %18 = getelementptr inbounds nuw %struct._zval_struct, ptr %17, i32 0, i32 0
  %19 = load ptr, ptr %18, align 8, !tbaa !11
  %20 = load ptr, ptr %6, align 8, !tbaa !12
  %21 = getelementptr inbounds nuw %struct._zval_struct, ptr %20, i32 0, i32 0
  %22 = load ptr, ptr %21, align 8, !tbaa !11
  %23 = icmp eq ptr %19, %22
  br i1 %23, label %24, label %25

24:                                               ; preds = %16
  br label %81

25:                                               ; preds = %16, %3
  %26 = load ptr, ptr %4, align 8, !tbaa !12
  %27 = load ptr, ptr %5, align 8, !tbaa !12
  %28 = icmp ne ptr %26, %27
  br i1 %28, label %29, label %42

29:                                               ; preds = %25
  br label %30

30:                                               ; preds = %29
  call void @llvm.lifetime.start.p0(i64 8, ptr %7) #20
  %31 = load ptr, ptr %5, align 8, !tbaa !12
  %32 = getelementptr inbounds nuw %struct._zval_struct, ptr %31, i32 0, i32 0
  %33 = load ptr, ptr %32, align 8, !tbaa !11
  %34 = call ptr @zend_array_dup(ptr noundef %33)
  store ptr %34, ptr %7, align 8, !tbaa !84
  call void @llvm.lifetime.start.p0(i64 8, ptr %8) #20
  %35 = load ptr, ptr %4, align 8, !tbaa !12
  store ptr %35, ptr %8, align 8, !tbaa !12
  %36 = load ptr, ptr %7, align 8, !tbaa !84
  %37 = load ptr, ptr %8, align 8, !tbaa !12
  %38 = getelementptr inbounds nuw %struct._zval_struct, ptr %37, i32 0, i32 0
  store ptr %36, ptr %38, align 8, !tbaa !11
  %39 = load ptr, ptr %8, align 8, !tbaa !12
  %40 = getelementptr inbounds nuw %struct._zval_struct, ptr %39, i32 0, i32 1
  store i32 775, ptr %40, align 8, !tbaa !11
  call void @llvm.lifetime.end.p0(i64 8, ptr %8) #20
  call void @llvm.lifetime.end.p0(i64 8, ptr %7) #20
  br label %41

41:                                               ; preds = %30
  br label %74

42:                                               ; preds = %25
  br label %43

43:                                               ; preds = %42
  call void @llvm.lifetime.start.p0(i64 8, ptr %9) #20
  %44 = load ptr, ptr %4, align 8, !tbaa !12
  store ptr %44, ptr %9, align 8, !tbaa !12
  call void @llvm.lifetime.start.p0(i64 8, ptr %10) #20
  %45 = load ptr, ptr %9, align 8, !tbaa !12
  %46 = getelementptr inbounds nuw %struct._zval_struct, ptr %45, i32 0, i32 0
  %47 = load ptr, ptr %46, align 8, !tbaa !11
  store ptr %47, ptr %10, align 8, !tbaa !84
  %48 = load ptr, ptr %10, align 8, !tbaa !84
  %49 = getelementptr inbounds nuw %struct._zend_array, ptr %48, i32 0, i32 0
  %50 = call i32 @zend_gc_refcount(ptr noundef %49)
  %51 = icmp ugt i32 %50, 1
  %52 = xor i1 %51, true
  %53 = xor i1 %52, true
  %54 = zext i1 %53 to i32
  %55 = sext i32 %54 to i64
  %56 = call i64 @llvm.expect.i64(i64 %55, i64 0)
  %57 = icmp ne i64 %56, 0
  br i1 %57, label %58, label %72

58:                                               ; preds = %43
  br label %59

59:                                               ; preds = %58
  call void @llvm.lifetime.start.p0(i64 8, ptr %11) #20
  %60 = load ptr, ptr %10, align 8, !tbaa !84
  %61 = call ptr @zend_array_dup(ptr noundef %60)
  store ptr %61, ptr %11, align 8, !tbaa !84
  call void @llvm.lifetime.start.p0(i64 8, ptr %12) #20
  %62 = load ptr, ptr %9, align 8, !tbaa !12
  store ptr %62, ptr %12, align 8, !tbaa !12
  %63 = load ptr, ptr %11, align 8, !tbaa !84
  %64 = load ptr, ptr %12, align 8, !tbaa !12
  %65 = getelementptr inbounds nuw %struct._zval_struct, ptr %64, i32 0, i32 0
  store ptr %63, ptr %65, align 8, !tbaa !11
  %66 = load ptr, ptr %12, align 8, !tbaa !12
  %67 = getelementptr inbounds nuw %struct._zval_struct, ptr %66, i32 0, i32 1
  store i32 775, ptr %67, align 8, !tbaa !11
  call void @llvm.lifetime.end.p0(i64 8, ptr %12) #20
  call void @llvm.lifetime.end.p0(i64 8, ptr %11) #20
  br label %68

68:                                               ; preds = %59
  br label %69

69:                                               ; preds = %68
  %70 = load ptr, ptr %10, align 8, !tbaa !84
  %71 = getelementptr inbounds nuw %struct._zend_array, ptr %70, i32 0, i32 0
  call void @zend_gc_try_delref(ptr noundef %71)
  br label %72

72:                                               ; preds = %69, %43
  call void @llvm.lifetime.end.p0(i64 8, ptr %10) #20
  call void @llvm.lifetime.end.p0(i64 8, ptr %9) #20
  br label %73

73:                                               ; preds = %72
  br label %74

74:                                               ; preds = %73, %41
  %75 = load ptr, ptr %4, align 8, !tbaa !12
  %76 = getelementptr inbounds nuw %struct._zval_struct, ptr %75, i32 0, i32 0
  %77 = load ptr, ptr %76, align 8, !tbaa !11
  %78 = load ptr, ptr %6, align 8, !tbaa !12
  %79 = getelementptr inbounds nuw %struct._zval_struct, ptr %78, i32 0, i32 0
  %80 = load ptr, ptr %79, align 8, !tbaa !11
  call void @zend_hash_merge(ptr noundef %77, ptr noundef %80, ptr noundef @zval_add_ref, i1 noundef zeroext false)
  br label %81

81:                                               ; preds = %74, %24
  ret void
}