; Function Attrs: noinline nounwind uwtable
define internal fastcc void @add_function_array(ptr noundef captures(address) %0, ptr noundef readonly captures(address) %1, ptr noundef readonly captures(none) %2) unnamed_addr #4 {
  %4 = icmp eq ptr %0, %1
  %5 = load ptr, ptr %1, align 8, !tbaa !4
  br i1 %4, label %6, label %9

6:                                                ; preds = %3
  %7 = load ptr, ptr %2, align 8, !tbaa !4
  %8 = icmp eq ptr %5, %7
  br i1 %8, label %27, label %12

9:                                                ; preds = %3
  %10 = tail call ptr @zend_array_dup(ptr noundef %5) #28
  store ptr %10, ptr %0, align 8, !tbaa !4
  %11 = getelementptr inbounds nuw i8, ptr %0, i64 8
  store i32 775, ptr %11, align 8, !tbaa !4
  br label %zend_gc_try_delref.exit

12:                                               ; preds = %6
  %13 = load ptr, ptr %0, align 8, !tbaa !4
  %14 = load i32, ptr %13, align 4, !tbaa !7
  %15 = icmp ugt i32 %14, 1
  br i1 %15, label %16, label %zend_gc_try_delref.exit, !prof !41

16:                                               ; preds = %12
  %17 = tail call ptr @zend_array_dup(ptr noundef nonnull %13) #28
  store ptr %17, ptr %0, align 8, !tbaa !4
  %18 = getelementptr inbounds nuw i8, ptr %0, i64 8
  store i32 775, ptr %18, align 8, !tbaa !4
  %19 = getelementptr inbounds nuw i8, ptr %13, i64 4
  %20 = load i32, ptr %19, align 4, !tbaa !4
  %21 = and i32 %20, 64
  %.not.i = icmp eq i32 %21, 0
  br i1 %.not.i, label %22, label %zend_gc_try_delref.exit

22:                                               ; preds = %16
  %23 = load i32, ptr %13, align 4, !tbaa !7
  %24 = add i32 %23, -1
  store i32 %24, ptr %13, align 4, !tbaa !7
  %.pre = load ptr, ptr %0, align 8, !tbaa !4
  br label %zend_gc_try_delref.exit

zend_gc_try_delref.exit:                          ; preds = %22, %16, %12, %9
  %25 = phi ptr [ %.pre, %22 ], [ %17, %16 ], [ %13, %12 ], [ %10, %9 ]
  %26 = load ptr, ptr %2, align 8, !tbaa !4
  tail call void @zend_hash_merge(ptr noundef %25, ptr noundef %26, ptr noundef nonnull @zval_add_ref, i1 noundef zeroext false) #28
  br label %27

27:                                               ; preds = %6, %zend_gc_try_delref.exit
  ret void
}